target datalayout = "e-m:e-p270:32:32-p271:32:32-p272:64:64-i64:64-i128:128-f80:128-n8:16:32:64-S128"
target triple = "x86_64-unknown-linux-gnu"

%"struct.EA::UnitTest::TestCollection::TestInfo" = type { ptr, i8 }

; Function Attrs: mustprogress uwtable
define dso_local noundef ptr @_ZN2EA8UnitTest14TestCollection8FindTestEPKc(ptr noundef nonnull align 8 dereferenceable(32) %this, ptr noundef %pTestName) #2 align 2 {
entry:
  %this.addr = alloca ptr, align 8
  %pTestName.addr = alloca ptr, align 8
  %pTestInfo = alloca ptr, align 8
  store ptr %this, ptr %this.addr, align 8
  store ptr %pTestName, ptr %pTestName.addr, align 8
  %this1 = load ptr, ptr %this.addr, align 8
  %0 = load ptr, ptr %pTestName.addr, align 8
  %call = call noundef ptr @_ZN2EA8UnitTest14TestCollection12FindTestInfoEPKcb(ptr noundef nonnull align 8 dereferenceable(32) %this1, ptr noundef %0, i1 noundef zeroext true)
  store ptr %call, ptr %pTestInfo, align 8
  %1 = load ptr, ptr %pTestInfo, align 8
  %tobool = icmp ne ptr %1, null
  br i1 %tobool, label %cond.true, label %cond.false

cond.true:                                        ; preds = %entry
  %2 = load ptr, ptr %pTestInfo, align 8
  %mpTest = getelementptr inbounds %"struct.EA::UnitTest::TestCollection::TestInfo", ptr %2, i32 0, i32 0
  %3 = load ptr, ptr %mpTest, align 8
  br label %cond.end

cond.false:                                       ; preds = %entry
  br label %cond.end

cond.end:                                         ; preds = %cond.false, %cond.true
  %cond = phi ptr [ %3, %cond.true ], [ null, %cond.false ]
  ret ptr %cond
}