; Function Attrs: mustprogress uwtable
define dso_local noundef ptr @_ZN2EA8UnitTest14TestCollection8FindTestEPKc(ptr nocapture noundef nonnull readonly align 8 dereferenceable(32) %this, ptr noundef %pTestName) local_unnamed_addr #0 align 2 {
entry:
  %call = tail call noundef ptr @_ZN2EA8UnitTest14TestCollection12FindTestInfoEPKcb(ptr noundef nonnull align 8 dereferenceable(32) %this, ptr noundef %pTestName, i1 noundef zeroext true)
  %tobool.not = icmp eq ptr %call, null
  br i1 %tobool.not, label %cond.end, label %cond.true

cond.true:                                        ; preds = %entry
  %0 = load ptr, ptr %call, align 8
  br label %cond.end

cond.end:                                         ; preds = %entry, %cond.true
  %cond = phi ptr [ %0, %cond.true ], [ null, %entry ]
  ret ptr %cond
}